target datalayout = "e-m:e-p270:32:32-p271:32:32-p272:64:64-i64:64-i128:128-f80:128-n8:16:32:64-S128"
target triple = "x86_64-pc-linux-gnu"

@.str.4 = private unnamed_addr constant [100 x i8] c"generated/home/dtcxzyw/WorkSpace/Projects/compilers/llvm-opt-benchmark/bench/hdf5/hdf5/src/H5Oint.c\00", align 1
@H5E_OHDR_g = external global i64, align 8
@H5E_CANTGET_g = external global i64, align 8
@.str.41 = private unnamed_addr constant [29 x i8] c"unable to load object header\00", align 1
@.str.47 = private unnamed_addr constant [32 x i8] c"unable to release object header\00", align 1
@H5E_PROTECT_g = external global i64, align 8
@__func__.H5O_get_hdr_info = private unnamed_addr constant [17 x i8] c"H5O_get_hdr_info\00", align 1
@H5E_CANTLOAD_g = external global i64, align 8
@.str.65 = private unnamed_addr constant [34 x i8] c"can't retrieve object header info\00", align 1

; Function Attrs: nounwind uwtable
define i32 @H5O_get_hdr_info(ptr noundef %0, ptr noundef %1) #0 {
  %3 = alloca ptr, align 8
  %4 = alloca ptr, align 8
  %5 = alloca ptr, align 8
  %6 = alloca i32, align 4
  %7 = alloca i8, align 1
  store ptr %0, ptr %3, align 8
  store ptr %1, ptr %4, align 8
  store ptr null, ptr %5, align 8
  store i32 0, ptr %6, align 4
  store i8 0, ptr %7, align 1
  %8 = load ptr, ptr %4, align 8
  call void @llvm.memset.p0.i64(ptr align 8 %8, i8 0, i64 64, i1 false)
  %9 = load ptr, ptr %3, align 8
  %10 = call ptr @H5O_protect(ptr noundef %9, i32 noundef 128, i1 noundef zeroext false)
  store ptr %10, ptr %5, align 8
  %11 = icmp eq ptr null, %10
  br i1 %11, label %12, label %27

12:                                               ; preds = %2
  br label %13

13:                                               ; preds = %12
  br label %14

14:                                               ; preds = %13
  br label %15

15:                                               ; preds = %14
  %16 = load i64, ptr @H5E_OHDR_g, align 8
  %17 = load i64, ptr @H5E_CANTLOAD_g, align 8
  %18 = call i32 (ptr, ptr, i32, i64, i64, ptr, ...) @H5E_printf_stack(ptr noundef @.str.4, ptr noundef @__func__.H5O_get_hdr_info, i32 noundef 1970, i64 noundef %16, i64 noundef %17, ptr noundef @.str.41)
  br label %19

19:                                               ; preds = %15
  store i8 1, ptr %7, align 1
  %20 = load i8, ptr %7, align 1
  %21 = trunc i8 %20 to i1
  %22 = zext i1 %21 to i8
  store i8 %22, ptr %7, align 1
  br label %23

23:                                               ; preds = %19
  br label %24

24:                                               ; preds = %23
  store i32 -1, ptr %6, align 4
  br label %48

25:                                               ; No predecessors!
  br label %26

26:                                               ; preds = %25
  br label %27

27:                                               ; preds = %26, %2
  %28 = load ptr, ptr %5, align 8
  %29 = load ptr, ptr %4, align 8
  %30 = call i32 @H5O__get_hdr_info_real(ptr noundef %28, ptr noundef %29)
  %31 = icmp slt i32 %30, 0
  br i1 %31, label %32, label %47

32:                                               ; preds = %27
  br label %33

33:                                               ; preds = %32
  br label %34

34:                                               ; preds = %33
  br label %35

35:                                               ; preds = %34
  %36 = load i64, ptr @H5E_OHDR_g, align 8
  %37 = load i64, ptr @H5E_CANTGET_g, align 8
  %38 = call i32 (ptr, ptr, i32, i64, i64, ptr, ...) @H5E_printf_stack(ptr noundef @.str.4, ptr noundef @__func__.H5O_get_hdr_info, i32 noundef 1974, i64 noundef %36, i64 noundef %37, ptr noundef @.str.65)
  br label %39

39:                                               ; preds = %35
  store i8 1, ptr %7, align 1
  %40 = load i8, ptr %7, align 1
  %41 = trunc i8 %40 to i1
  %42 = zext i1 %41 to i8
  store i8 %42, ptr %7, align 1
  br label %43

43:                                               ; preds = %39
  br label %44

44:                                               ; preds = %43
  store i32 -1, ptr %6, align 4
  br label %48

45:                                               ; No predecessors!
  br label %46

46:                                               ; preds = %45
  br label %47

47:                                               ; preds = %46, %27
  br label %48

48:                                               ; preds = %47, %44, %24
  %49 = load ptr, ptr %5, align 8
  %50 = icmp ne ptr %49, null
  br i1 %50, label %51, label %69

51:                                               ; preds = %48
  %52 = load ptr, ptr %3, align 8
  %53 = load ptr, ptr %5, align 8
  %54 = call i32 @H5O_unprotect(ptr noundef %52, ptr noundef %53, i32 noundef 0)
  %55 = icmp slt i32 %54, 0
  br i1 %55, label %56, label %69

56:                                               ; preds = %51
  br label %57

57:                                               ; preds = %56
  br label %58

58:                                               ; preds = %57
  br label %59

59:                                               ; preds = %58
  %60 = load i64, ptr @H5E_OHDR_g, align 8
  %61 = load i64, ptr @H5E_PROTECT_g, align 8
  %62 = call i32 (ptr, ptr, i32, i64, i64, ptr, ...) @H5E_printf_stack(ptr noundef @.str.4, ptr noundef @__func__.H5O_get_hdr_info, i32 noundef 1978, i64 noundef %60, i64 noundef %61, ptr noundef @.str.47)
  br label %63

63:                                               ; preds = %59
  store i8 1, ptr %7, align 1
  %64 = load i8, ptr %7, align 1
  %65 = trunc i8 %64 to i1
  %66 = zext i1 %65 to i8
  store i8 %66, ptr %7, align 1
  br label %67

67:                                               ; preds = %63
  store i32 -1, ptr %6, align 4
  br label %68

68:                                               ; preds = %67
  br label %69

69:                                               ; preds = %68, %51, %48
  %70 = load i32, ptr %6, align 4
  ret i32 %70
}