; Function Attrs: nounwind uwtable
define range(i32 -1, 1) i32 @H5O_get_hdr_info(ptr nocapture noundef readonly %0, ptr nocapture noundef writeonly %1) local_unnamed_addr #1 {
  tail call void @llvm.memset.p0.i64(ptr noundef nonnull align 8 dereferenceable(64) %1, i8 0, i64 64, i1 false)
  %3 = tail call ptr @H5O_protect(ptr noundef %0, i32 noundef 128, i1 noundef zeroext false)
  %4 = icmp eq ptr %3, null
  br i1 %4, label %.thread, label %8

.thread:                                          ; preds = %2
  %5 = load i64, ptr @H5E_OHDR_g, align 8
  %6 = load i64, ptr @H5E_CANTLOAD_g, align 8
  %7 = tail call i32 (ptr, ptr, i32, i64, i64, ptr, ...) @H5E_printf_stack(ptr noundef nonnull @.str.4, ptr noundef nonnull @__func__.H5O_get_hdr_info, i32 noundef 1970, i64 noundef %5, i64 noundef %6, ptr noundef nonnull @.str.41) #11
  br label %15

8:                                                ; preds = %2
  tail call fastcc void @H5O__get_hdr_info_real(ptr noundef nonnull %3, ptr noundef nonnull %1)
  %9 = tail call i32 @H5O_unprotect(ptr noundef %0, ptr noundef nonnull %3, i32 noundef 0)
  %10 = icmp slt i32 %9, 0
  br i1 %10, label %11, label %15

11:                                               ; preds = %8
  %12 = load i64, ptr @H5E_OHDR_g, align 8
  %13 = load i64, ptr @H5E_PROTECT_g, align 8
  %14 = tail call i32 (ptr, ptr, i32, i64, i64, ptr, ...) @H5E_printf_stack(ptr noundef nonnull @.str.4, ptr noundef nonnull @__func__.H5O_get_hdr_info, i32 noundef 1978, i64 noundef %12, i64 noundef %13, ptr noundef nonnull @.str.47) #11
  br label %15

15:                                               ; preds = %.thread, %11, %8
  %.1 = phi i32 [ -1, %11 ], [ 0, %8 ], [ -1, %.thread ]
  ret i32 %.1
}